target datalayout = "e-m:e-p270:32:32-p271:32:32-p272:64:64-i64:64-i128:128-f80:128-n8:16:32:64-S128"
target triple = "x86_64-unknown-linux-gnu"

%struct.hiredisAllocFuncs = type { ptr, ptr, ptr, ptr, ptr }

@hiredisAllocFns = external global %struct.hiredisAllocFuncs, align 8

; Function Attrs: nounwind uwtable
define internal ptr @hi_malloc(i64 noundef %size) #0 {
entry:
  %size.addr = alloca i64, align 8
  store i64 %size, ptr %size.addr, align 8
  %0 = load ptr, ptr @hiredisAllocFns, align 8
  %1 = load i64, ptr %size.addr, align 8
  %call = call ptr %0(i64 noundef %1)
  ret ptr %call
}

; Function Attrs: nounwind uwtable
define internal ptr @callbackValDup(ptr noundef %privdata, ptr noundef %src) #0 {
entry:
  %retval = alloca ptr, align 8
  %privdata.addr = alloca ptr, align 8
  %src.addr = alloca ptr, align 8
  %dup = alloca ptr, align 8
  store ptr %privdata, ptr %privdata.addr, align 8
  store ptr %src, ptr %src.addr, align 8
  %call = call ptr @hi_malloc(i64 noundef 32)
  store ptr %call, ptr %dup, align 8
  %0 = load ptr, ptr %dup, align 8
  %cmp = icmp eq ptr %0, null
  br i1 %cmp, label %if.then, label %if.end

if.then:                                          ; preds = %entry
  store ptr null, ptr %retval, align 8
  br label %return

if.end:                                           ; preds = %entry
  %1 = load ptr, ptr %dup, align 8
  %2 = load ptr, ptr %src.addr, align 8
  call void @llvm.memcpy.p0.p0.i64(ptr align 8 %1, ptr align 1 %2, i64 32, i1 false)
  %3 = load ptr, ptr %dup, align 8
  store ptr %3, ptr %retval, align 8
  br label %return

return:                                           ; preds = %if.end, %if.then
  %4 = load ptr, ptr %retval, align 8
  ret ptr %4
}