; Function Attrs: nounwind uwtable
define internal ptr @callbackValDup(ptr nocapture readnone %privdata, ptr nocapture noundef readonly %src) #0 {
entry:
  %0 = load ptr, ptr @hiredisAllocFns, align 8
  %call.i = tail call ptr %0(i64 noundef 32) #14
  %cmp = icmp eq ptr %call.i, null
  br i1 %cmp, label %return, label %if.end

if.end:                                           ; preds = %entry
  tail call void @llvm.memcpy.p0.p0.i64(ptr noundef nonnull align 8 dereferenceable(32) %call.i, ptr noundef nonnull align 1 dereferenceable(32) %src, i64 32, i1 false)
  br label %return

return:                                           ; preds = %entry, %if.end
  ret ptr %call.i
}